; ModuleID = '25/135.cpp'
source_filename = "25/135.cpp"
target datalayout = "e-m:e-p270:32:32-p271:32:32-p272:64:64-i64:64-f80:128-n8:16:32:64-S128"
target triple = "x86_64-pc-linux-gnu"

%"class.std::ios_base::Init" = type { i8 }
%"class.std::basic_istream" = type { i32 (...)**, i64, %"class.std::basic_ios" }
%"class.std::basic_ios" = type { %"class.std::ios_base", %"class.std::basic_ostream"*, i8, i8, %"class.std::basic_streambuf"*, %"class.std::ctype"*, %"class.std::num_put"*, %"class.std::num_get"* }
%"class.std::ios_base" = type { i32 (...)**, i64, i64, i32, i32, i32, %"struct.std::ios_base::_Callback_list"*, %"struct.std::ios_base::_Words", [8 x %"struct.std::ios_base::_Words"], i32, %"struct.std::ios_base::_Words"*, %"class.std::locale" }
%"struct.std::ios_base::_Callback_list" = type { %"struct.std::ios_base::_Callback_list"*, void (i32, %"class.std::ios_base"*, i32)*, i32, i32 }
%"struct.std::ios_base::_Words" = type { i8*, i64 }
%"class.std::locale" = type { %"class.std::locale::_Impl"* }
%"class.std::locale::_Impl" = type { i32, %"class.std::locale::facet"**, i64, %"class.std::locale::facet"**, i8** }
%"class.std::locale::facet" = type <{ i32 (...)**, i32, [4 x i8] }>
%"class.std::basic_ostream" = type { i32 (...)**, %"class.std::basic_ios" }
%"class.std::basic_streambuf" = type { i32 (...)**, i8*, i8*, i8*, i8*, i8*, i8*, %"class.std::locale" }
%"class.std::ctype" = type <{ %"class.std::locale::facet.base", [4 x i8], %struct.__locale_struct*, i8, [7 x i8], i32*, i32*, i16*, i8, [256 x i8], [256 x i8], i8, [6 x i8] }>
%"class.std::locale::facet.base" = type <{ i32 (...)**, i32 }>
%struct.__locale_struct = type { [13 x %struct.__locale_data*], i16*, i32*, i32*, [13 x i8*] }
%struct.__locale_data = type opaque
%"class.std::num_put" = type { %"class.std::locale::facet.base", [4 x i8] }
%"class.std::num_get" = type { %"class.std::locale::facet.base", [4 x i8] }

@_ZStL8__ioinit = internal global %"class.std::ios_base::Init" zeroinitializer, align 1
@__dso_handle = external hidden global i8
@_ZSt3cin = external dso_local global %"class.std::basic_istream", align 8
@_ZSt4cout = external dso_local global %"class.std::basic_ostream", align 8
@llvm.global_ctors = appending global [1 x { i32, void ()*, i8* }] [{ i32, void ()*, i8* } { i32 65535, void ()* @_GLOBAL__sub_I_135.cpp, i8* null }]

; Function Attrs: noinline uwtable
define internal void @__cxx_global_var_init() #0 section ".text.startup" {
  call void @_ZNSt8ios_base4InitC1Ev(%"class.std::ios_base::Init"* @_ZStL8__ioinit)
  %1 = call i32 @__cxa_atexit(void (i8*)* bitcast (void (%"class.std::ios_base::Init"*)* @_ZNSt8ios_base4InitD1Ev to void (i8*)*), i8* getelementptr inbounds (%"class.std::ios_base::Init", %"class.std::ios_base::Init"* @_ZStL8__ioinit, i32 0, i32 0), i8* @__dso_handle) #3
  ret void
}

declare dso_local void @_ZNSt8ios_base4InitC1Ev(%"class.std::ios_base::Init"*) unnamed_addr #1

; Function Attrs: nounwind
declare dso_local void @_ZNSt8ios_base4InitD1Ev(%"class.std::ios_base::Init"*) unnamed_addr #2

; Function Attrs: nounwind
declare dso_local i32 @__cxa_atexit(void (i8*)*, i8*, i8*) #3

; Function Attrs: noinline norecurse uwtable
define dso_local i32 @main() #4 {
  %1 = alloca i32, align 4
  %2 = alloca i32, align 4
  %3 = alloca [101 x i8], align 16
  %4 = alloca i32, align 4
  %5 = alloca i8*, align 8
  store i32 0, i32* %1, align 4
  store i32 0, i32* %2, align 4
  store i32 0, i32* %4, align 4
  %6 = call dereferenceable(280) %"class.std::basic_istream"* @_ZNSirsERi(%"class.std::basic_istream"* @_ZSt3cin, i32* dereferenceable(4) %2)
  %7 = getelementptr inbounds [101 x i8], [101 x i8]* %3, i64 0, i64 1
  store i8* %7, i8** %5, align 8
  %8 = getelementptr inbounds [101 x i8], [101 x i8]* %3, i64 0, i64 0
  call void @llvm.memset.p0i8.i64(i8* align 16 %8, i8 48, i64 101, i1 false)
  %9 = load i8*, i8** %5, align 8
  store i8 49, i8* %9, align 1
  store i32 1, i32* %4, align 4
  br label %10

10:                                               ; preds = %86, %0
  %11 = load i32, i32* %4, align 4
  %12 = load i32, i32* %2, align 4
  %13 = icmp sle i32 %11, %12
  br i1 %13, label %14, label %89

14:                                               ; preds = %10
  %15 = getelementptr inbounds [101 x i8], [101 x i8]* %3, i64 0, i64 100
  store i8* %15, i8** %5, align 8
  br label %16

16:                                               ; preds = %14, %84
  %17 = load i8*, i8** %5, align 8
  %18 = load i8, i8* %17, align 1
  %19 = sext i8 %18 to i32
  %20 = sub nsw i32 %19, 48
  %21 = mul nsw i32 %20, 2
  %22 = icmp sge i32 %21, 20
  br i1 %22, label %23, label %39

23:                                               ; preds = %16
  %24 = load i8*, i8** %5, align 8
  %25 = getelementptr inbounds i8, i8* %24, i64 1
  %26 = load i8, i8* %25, align 1
  %27 = sext i8 %26 to i32
  %28 = add nsw i32 %27, 2
  %29 = trunc i32 %28 to i8
  store i8 %29, i8* %25, align 1
  %30 = load i8*, i8** %5, align 8
  %31 = load i8, i8* %30, align 1
  %32 = sext i8 %31 to i32
  %33 = sub nsw i32 %32, 48
  %34 = mul nsw i32 %33, 2
  %35 = srem i32 %34, 20
  %36 = add nsw i32 %35, 48
  %37 = trunc i32 %36 to i8
  %38 = load i8*, i8** %5, align 8
  store i8 %37, i8* %38, align 1
  br label %77

39:                                               ; preds = %16
  %40 = load i8*, i8** %5, align 8
  %41 = load i8, i8* %40, align 1
  %42 = sext i8 %41 to i32
  %43 = sub nsw i32 %42, 48
  %44 = mul nsw i32 %43, 2
  %45 = icmp sge i32 %44, 10
  br i1 %45, label %46, label %67

46:                                               ; preds = %39
  %47 = load i8*, i8** %5, align 8
  %48 = load i8, i8* %47, align 1
  %49 = sext i8 %48 to i32
  %50 = sub nsw i32 %49, 48
  %51 = mul nsw i32 %50, 2
  %52 = icmp slt i32 %51, 20
  br i1 %52, label %53, label %67

53:                                               ; preds = %46
  %54 = load i8*, i8** %5, align 8
  %55 = getelementptr inbounds i8, i8* %54, i64 1
  %56 = load i8, i8* %55, align 1
  %57 = add i8 %56, 1
  store i8 %57, i8* %55, align 1
  %58 = load i8*, i8** %5, align 8
  %59 = load i8, i8* %58, align 1
  %60 = sext i8 %59 to i32
  %61 = sub nsw i32 %60, 48
  %62 = mul nsw i32 %61, 2
  %63 = srem i32 %62, 10
  %64 = add nsw i32 %63, 48
  %65 = trunc i32 %64 to i8
  %66 = load i8*, i8** %5, align 8
  store i8 %65, i8* %66, align 1
  br label %76

67:                                               ; preds = %46, %39
  %68 = load i8*, i8** %5, align 8
  %69 = load i8, i8* %68, align 1
  %70 = sext i8 %69 to i32
  %71 = sub nsw i32 %70, 48
  %72 = mul nsw i32 %71, 2
  %73 = add nsw i32 %72, 48
  %74 = trunc i32 %73 to i8
  %75 = load i8*, i8** %5, align 8
  store i8 %74, i8* %75, align 1
  br label %76

76:                                               ; preds = %67, %53
  br label %77

77:                                               ; preds = %76, %23
  %78 = load i8*, i8** %5, align 8
  %79 = getelementptr inbounds i8, i8* %78, i32 -1
  store i8* %79, i8** %5, align 8
  %80 = load i8*, i8** %5, align 8
  %81 = getelementptr inbounds [101 x i8], [101 x i8]* %3, i64 0, i64 0
  %82 = icmp eq i8* %80, %81
  br i1 %82, label %83, label %84

83:                                               ; preds = %77
  br label %85

84:                                               ; preds = %77
  br label %16

85:                                               ; preds = %83
  br label %86

86:                                               ; preds = %85
  %87 = load i32, i32* %4, align 4
  %88 = add nsw i32 %87, 1
  store i32 %88, i32* %4, align 4
  br label %10

89:                                               ; preds = %10
  store i32 1, i32* %4, align 4
  br label %90

90:                                               ; preds = %119, %89
  %91 = load i32, i32* %4, align 4
  %92 = icmp sle i32 %91, 100
  br i1 %92, label %93, label %122

93:                                               ; preds = %90
  %94 = load i32, i32* %4, align 4
  %95 = sext i32 %94 to i64
  %96 = getelementptr inbounds [101 x i8], [101 x i8]* %3, i64 0, i64 %95
  %97 = load i8, i8* %96, align 1
  %98 = sext i8 %97 to i32
  %99 = sub nsw i32 %98, 48
  %100 = icmp sge i32 %99, 10
  br i1 %100, label %101, label %118

101:                                              ; preds = %93
  %102 = load i32, i32* %4, align 4
  %103 = add nsw i32 %102, 1
  %104 = sext i32 %103 to i64
  %105 = getelementptr inbounds [101 x i8], [101 x i8]* %3, i64 0, i64 %104
  %106 = load i8, i8* %105, align 1
  %107 = add i8 %106, 1
  store i8 %107, i8* %105, align 1
  %108 = load i32, i32* %4, align 4
  %109 = sext i32 %108 to i64
  %110 = getelementptr inbounds [101 x i8], [101 x i8]* %3, i64 0, i64 %109
  %111 = load i8, i8* %110, align 1
  %112 = sext i8 %111 to i32
  %113 = srem i32 %112, 10
  %114 = trunc i32 %113 to i8
  %115 = load i32, i32* %4, align 4
  %116 = sext i32 %115 to i64
  %117 = getelementptr inbounds [101 x i8], [101 x i8]* %3, i64 0, i64 %116
  store i8 %114, i8* %117, align 1
  br label %118

118:                                              ; preds = %101, %93
  br label %119

119:                                              ; preds = %118
  %120 = load i32, i32* %4, align 4
  %121 = add nsw i32 %120, 1
  store i32 %121, i32* %4, align 4
  br label %90

122:                                              ; preds = %90
  store i32 100, i32* %4, align 4
  br label %123

123:                                              ; preds = %136, %122
  %124 = load i32, i32* %4, align 4
  %125 = icmp sge i32 %124, 1
  br i1 %125, label %126, label %139

126:                                              ; preds = %123
  %127 = load i32, i32* %4, align 4
  %128 = sext i32 %127 to i64
  %129 = getelementptr inbounds [101 x i8], [101 x i8]* %3, i64 0, i64 %128
  %130 = load i8, i8* %129, align 1
  %131 = sext i8 %130 to i32
  %132 = sub nsw i32 %131, 48
  %133 = icmp sgt i32 %132, 0
  br i1 %133, label %134, label %135

134:                                              ; preds = %126
  br label %139

135:                                              ; preds = %126
  br label %136

136:                                              ; preds = %135
  %137 = load i32, i32* %4, align 4
  %138 = add nsw i32 %137, -1
  store i32 %138, i32* %4, align 4
  br label %123

139:                                              ; preds = %134, %123
  br label %140

140:                                              ; preds = %149, %139
  %141 = load i32, i32* %4, align 4
  %142 = icmp sgt i32 %141, 0
  br i1 %142, label %143, label %152

143:                                              ; preds = %140
  %144 = load i32, i32* %4, align 4
  %145 = sext i32 %144 to i64
  %146 = getelementptr inbounds [101 x i8], [101 x i8]* %3, i64 0, i64 %145
  %147 = load i8, i8* %146, align 1
  %148 = call dereferenceable(272) %"class.std::basic_ostream"* @_ZStlsISt11char_traitsIcEERSt13basic_ostreamIcT_ES5_c(%"class.std::basic_ostream"* dereferenceable(272) @_ZSt4cout, i8 signext %147)
  br label %149

149:                                              ; preds = %143
  %150 = load i32, i32* %4, align 4
  %151 = add nsw i32 %150, -1
  store i32 %151, i32* %4, align 4
  br label %140

152:                                              ; preds = %140
  ret i32 0
}

declare dso_local dereferenceable(280) %"class.std::basic_istream"* @_ZNSirsERi(%"class.std::basic_istream"*, i32* dereferenceable(4)) #1

; Function Attrs: argmemonly nounwind willreturn
declare void @llvm.memset.p0i8.i64(i8* nocapture writeonly, i8, i64, i1 immarg) #5

declare dso_local dereferenceable(272) %"class.std::basic_ostream"* @_ZStlsISt11char_traitsIcEERSt13basic_ostreamIcT_ES5_c(%"class.std::basic_ostream"* dereferenceable(272), i8 signext) #1

; Function Attrs: noinline uwtable
define internal void @_GLOBAL__sub_I_135.cpp() #0 section ".text.startup" {
  call void @__cxx_global_var_init()
  ret void
}


!llvm.module.flags = !{!0}
!llvm.ident = !{!1}

!0 = !{i32 1, !"wchar_size", i32 4}
!1 = !{!"clang version 10.0.0-4ubuntu1 "}
